target datalayout = "e-m:e-p270:32:32-p271:32:32-p272:64:64-i64:64-i128:128-f80:128-n8:16:32:64-S128"
target triple = "x86_64-pc-linux-gnu"

%struct.ossl_record_layer_st = type { ptr, ptr, i32, i32, i32, i32, i32, ptr, i16, ptr, ptr, ptr, i64, i32, [33 x %struct.tls_buffer_st], i64, i64, %struct.tls_buffer_st, [32 x %struct.tls_rl_record_st], i64, i64, i64, i32, ptr, i64, [8 x i8], i32, i32, i64, i32, ptr, ptr, i64, ptr, ptr, i32, i32, i32, i64, i64, i64, [64 x i8], i32, i32, i32, ptr, ptr, i32, i32, i64, ptr, ptr, %struct.dtls_bitmap_st, %struct.dtls_bitmap_st, i32, ptr, ptr, ptr, ptr, ptr, i64, ptr }
%struct.tls_buffer_st = type { ptr, i64, i64, i64, i64, i32, i32 }
%struct.tls_rl_record_st = type { i32, i32, i64, i64, i64, ptr, ptr, ptr, i16, [8 x i8] }
%struct.dtls_bitmap_st = type { i64, [8 x i8] }

@ssl3_pad_1 = internal constant [48 x i8] c"666666666666666666666666666666666666666666666666", align 16
@ssl3_pad_2 = internal constant [48 x i8] c"\\\\\\\\\\\\\\\\\\\\\\\\\\\\\\\\\\\\\\\\\\\\\\\\\\\\\\\\\\\\\\\\\\\\\\\\\\\\\\\\\\\\\\\\\\\\\\\\", align 16

; Function Attrs: nounwind uwtable
define internal i32 @ssl3_mac(ptr noundef %0, ptr noundef %1, ptr noundef %2, i32 noundef %3) #0 {
  %5 = alloca i32, align 4
  %6 = alloca ptr, align 8
  %7 = alloca ptr, align 8
  %8 = alloca ptr, align 8
  %9 = alloca i32, align 4
  %10 = alloca ptr, align 8
  %11 = alloca ptr, align 8
  %12 = alloca ptr, align 8
  %13 = alloca ptr, align 8
  %14 = alloca i8, align 1
  %15 = alloca i64, align 8
  %16 = alloca i64, align 8
  %17 = alloca i32, align 4
  %18 = alloca i32, align 4
  %19 = alloca [75 x i8], align 16
  %20 = alloca i64, align 8
  %21 = alloca i32, align 4
  %22 = alloca ptr, align 8
  store ptr %0, ptr %6, align 8, !tbaa !3
  store ptr %1, ptr %7, align 8, !tbaa !37
  store ptr %2, ptr %8, align 8, !tbaa !10
  store i32 %3, ptr %9, align 4, !tbaa !8
  call void @llvm.lifetime.start.p0(i64 8, ptr %10) #5
  call void @llvm.lifetime.start.p0(i64 8, ptr %11) #5
  %23 = load ptr, ptr %6, align 8, !tbaa !3
  %24 = getelementptr inbounds nuw %struct.ossl_record_layer_st, ptr %23, i32 0, i32 25
  %25 = getelementptr inbounds [8 x i8], ptr %24, i64 0, i64 0
  store ptr %25, ptr %11, align 8, !tbaa !10
  call void @llvm.lifetime.start.p0(i64 8, ptr %12) #5
  call void @llvm.lifetime.start.p0(i64 8, ptr %13) #5
  call void @llvm.lifetime.start.p0(i64 1, ptr %14) #5
  call void @llvm.lifetime.start.p0(i64 8, ptr %15) #5
  call void @llvm.lifetime.start.p0(i64 8, ptr %16) #5
  call void @llvm.lifetime.start.p0(i64 4, ptr %17) #5
  %26 = load ptr, ptr %6, align 8, !tbaa !3
  %27 = getelementptr inbounds nuw %struct.ossl_record_layer_st, ptr %26, i32 0, i32 41
  %28 = getelementptr inbounds [64 x i8], ptr %27, i64 0, i64 0
  store ptr %28, ptr %10, align 8, !tbaa !10
  %29 = load ptr, ptr %6, align 8, !tbaa !3
  %30 = getelementptr inbounds nuw %struct.ossl_record_layer_st, ptr %29, i32 0, i32 33
  %31 = load ptr, ptr %30, align 8, !tbaa !35
  store ptr %31, ptr %12, align 8, !tbaa !54
  %32 = load ptr, ptr %12, align 8, !tbaa !54
  %33 = call i32 @EVP_MD_CTX_get_size_ex(ptr noundef %32)
  store i32 %33, ptr %17, align 4, !tbaa !8
  %34 = load i32, ptr %17, align 4, !tbaa !8
  %35 = icmp sle i32 %34, 0
  br i1 %35, label %36, label %37

36:                                               ; preds = %4
  store i32 0, ptr %5, align 4
  store i32 1, ptr %18, align 4
  br label %237

37:                                               ; preds = %4
  %38 = load i32, ptr %17, align 4, !tbaa !8
  %39 = sext i32 %38 to i64
  store i64 %39, ptr %15, align 8, !tbaa !12
  %40 = load i64, ptr %15, align 8, !tbaa !12
  %41 = udiv i64 48, %40
  %42 = load i64, ptr %15, align 8, !tbaa !12
  %43 = mul i64 %41, %42
  store i64 %43, ptr %16, align 8, !tbaa !12
  %44 = load i32, ptr %9, align 4, !tbaa !8
  %45 = icmp ne i32 %44, 0
  br i1 %45, label %125, label %46

46:                                               ; preds = %37
  %47 = load ptr, ptr %6, align 8, !tbaa !3
  %48 = getelementptr inbounds nuw %struct.ossl_record_layer_st, ptr %47, i32 0, i32 30
  %49 = load ptr, ptr %48, align 8, !tbaa !33
  %50 = call ptr @EVP_CIPHER_CTX_get0_cipher(ptr noundef %49)
  %51 = call i32 @EVP_CIPHER_get_mode(ptr noundef %50)
  %52 = icmp eq i32 %51, 2
  br i1 %52, label %53, label %125

53:                                               ; preds = %46
  %54 = load ptr, ptr %12, align 8, !tbaa !54
  %55 = call signext i8 @ssl3_cbc_record_digest_supported(ptr noundef %54)
  %56 = sext i8 %55 to i32
  %57 = icmp ne i32 %56, 0
  br i1 %57, label %58, label %125

58:                                               ; preds = %53
  call void @llvm.lifetime.start.p0(i64 75, ptr %19) #5
  call void @llvm.lifetime.start.p0(i64 8, ptr %20) #5
  store i64 0, ptr %20, align 8, !tbaa !12
  %59 = getelementptr inbounds [75 x i8], ptr %19, i64 0, i64 0
  %60 = load i64, ptr %20, align 8, !tbaa !12
  %61 = getelementptr inbounds nuw i8, ptr %59, i64 %60
  %62 = load ptr, ptr %10, align 8, !tbaa !10
  %63 = load i64, ptr %15, align 8, !tbaa !12
  call void @llvm.memcpy.p0.p0.i64(ptr align 1 %61, ptr align 1 %62, i64 %63, i1 false)
  %64 = load i64, ptr %15, align 8, !tbaa !12
  %65 = load i64, ptr %20, align 8, !tbaa !12
  %66 = add i64 %65, %64
  store i64 %66, ptr %20, align 8, !tbaa !12
  %67 = getelementptr inbounds [75 x i8], ptr %19, i64 0, i64 0
  %68 = load i64, ptr %20, align 8, !tbaa !12
  %69 = getelementptr inbounds nuw i8, ptr %67, i64 %68
  %70 = load i64, ptr %16, align 8, !tbaa !12
  call void @llvm.memcpy.p0.p0.i64(ptr align 1 %69, ptr align 16 @ssl3_pad_1, i64 %70, i1 false)
  %71 = load i64, ptr %16, align 8, !tbaa !12
  %72 = load i64, ptr %20, align 8, !tbaa !12
  %73 = add i64 %72, %71
  store i64 %73, ptr %20, align 8, !tbaa !12
  %74 = getelementptr inbounds [75 x i8], ptr %19, i64 0, i64 0
  %75 = load i64, ptr %20, align 8, !tbaa !12
  %76 = getelementptr inbounds nuw i8, ptr %74, i64 %75
  %77 = load ptr, ptr %11, align 8, !tbaa !10
  call void @llvm.memcpy.p0.p0.i64(ptr align 1 %76, ptr align 1 %77, i64 8, i1 false)
  %78 = load i64, ptr %20, align 8, !tbaa !12
  %79 = add i64 %78, 8
  store i64 %79, ptr %20, align 8, !tbaa !12
  %80 = load ptr, ptr %7, align 8, !tbaa !37
  %81 = getelementptr inbounds nuw %struct.tls_rl_record_st, ptr %80, i32 0, i32 1
  %82 = load i32, ptr %81, align 4, !tbaa !55
  %83 = trunc i32 %82 to i8
  %84 = load i64, ptr %20, align 8, !tbaa !12
  %85 = add i64 %84, 1
  store i64 %85, ptr %20, align 8, !tbaa !12
  %86 = getelementptr inbounds nuw [75 x i8], ptr %19, i64 0, i64 %84
  store i8 %83, ptr %86, align 1, !tbaa !44
  %87 = load ptr, ptr %7, align 8, !tbaa !37
  %88 = getelementptr inbounds nuw %struct.tls_rl_record_st, ptr %87, i32 0, i32 2
  %89 = load i64, ptr %88, align 8, !tbaa !41
  %90 = lshr i64 %89, 8
  %91 = trunc i64 %90 to i8
  %92 = load i64, ptr %20, align 8, !tbaa !12
  %93 = add i64 %92, 1
  store i64 %93, ptr %20, align 8, !tbaa !12
  %94 = getelementptr inbounds nuw [75 x i8], ptr %19, i64 0, i64 %92
  store i8 %91, ptr %94, align 1, !tbaa !44
  %95 = load ptr, ptr %7, align 8, !tbaa !37
  %96 = getelementptr inbounds nuw %struct.tls_rl_record_st, ptr %95, i32 0, i32 2
  %97 = load i64, ptr %96, align 8, !tbaa !41
  %98 = and i64 %97, 255
  %99 = trunc i64 %98 to i8
  %100 = load i64, ptr %20, align 8, !tbaa !12
  %101 = add i64 %100, 1
  store i64 %101, ptr %20, align 8, !tbaa !12
  %102 = getelementptr inbounds nuw [75 x i8], ptr %19, i64 0, i64 %100
  store i8 %99, ptr %102, align 1, !tbaa !44
  %103 = load ptr, ptr %12, align 8, !tbaa !54
  %104 = call ptr @EVP_MD_CTX_get0_md(ptr noundef %103)
  %105 = load ptr, ptr %8, align 8, !tbaa !10
  %106 = getelementptr inbounds [75 x i8], ptr %19, i64 0, i64 0
  %107 = load ptr, ptr %7, align 8, !tbaa !37
  %108 = getelementptr inbounds nuw %struct.tls_rl_record_st, ptr %107, i32 0, i32 6
  %109 = load ptr, ptr %108, align 8, !tbaa !43
  %110 = load ptr, ptr %7, align 8, !tbaa !37
  %111 = getelementptr inbounds nuw %struct.tls_rl_record_st, ptr %110, i32 0, i32 2
  %112 = load i64, ptr %111, align 8, !tbaa !41
  %113 = load ptr, ptr %7, align 8, !tbaa !37
  %114 = getelementptr inbounds nuw %struct.tls_rl_record_st, ptr %113, i32 0, i32 3
  %115 = load i64, ptr %114, align 8, !tbaa !52
  %116 = load ptr, ptr %10, align 8, !tbaa !10
  %117 = load i64, ptr %15, align 8, !tbaa !12
  %118 = call i32 @ssl3_cbc_digest_record(ptr noundef %104, ptr noundef %105, ptr noundef %15, ptr noundef %106, ptr noundef %109, i64 noundef %112, i64 noundef %115, ptr noundef %116, i64 noundef %117, i8 noundef signext 1)
  %119 = icmp sle i32 %118, 0
  br i1 %119, label %120, label %121

120:                                              ; preds = %58
  store i32 0, ptr %5, align 4
  store i32 1, ptr %18, align 4
  br label %122

121:                                              ; preds = %58
  store i32 0, ptr %18, align 4
  br label %122

122:                                              ; preds = %121, %120
  call void @llvm.lifetime.end.p0(i64 8, ptr %20) #5
  call void @llvm.lifetime.end.p0(i64 75, ptr %19) #5
  %123 = load i32, ptr %18, align 4
  switch i32 %123, label %237 [
    i32 0, label %124
  ]

124:                                              ; preds = %122
  br label %231

125:                                              ; preds = %53, %46, %37
  call void @llvm.lifetime.start.p0(i64 4, ptr %21) #5
  call void @llvm.lifetime.start.p0(i64 8, ptr %22) #5
  %126 = call ptr @EVP_MD_CTX_new()
  store ptr %126, ptr %22, align 8, !tbaa !54
  %127 = load ptr, ptr %22, align 8, !tbaa !54
  %128 = icmp eq ptr %127, null
  br i1 %128, label %129, label %130

129:                                              ; preds = %125
  store i32 0, ptr %5, align 4
  store i32 1, ptr %18, align 4
  br label %228

130:                                              ; preds = %125
  %131 = load ptr, ptr %7, align 8, !tbaa !37
  %132 = getelementptr inbounds nuw %struct.tls_rl_record_st, ptr %131, i32 0, i32 1
  %133 = load i32, ptr %132, align 4, !tbaa !55
  %134 = trunc i32 %133 to i8
  store i8 %134, ptr %14, align 1, !tbaa !44
  %135 = load ptr, ptr %8, align 8, !tbaa !10
  store ptr %135, ptr %13, align 8, !tbaa !10
  %136 = load ptr, ptr %7, align 8, !tbaa !37
  %137 = getelementptr inbounds nuw %struct.tls_rl_record_st, ptr %136, i32 0, i32 2
  %138 = load i64, ptr %137, align 8, !tbaa !41
  %139 = lshr i64 %138, 8
  %140 = and i64 %139, 255
  %141 = trunc i64 %140 to i8
  %142 = load ptr, ptr %13, align 8, !tbaa !10
  %143 = getelementptr inbounds i8, ptr %142, i64 0
  store i8 %141, ptr %143, align 1, !tbaa !44
  %144 = load ptr, ptr %7, align 8, !tbaa !37
  %145 = getelementptr inbounds nuw %struct.tls_rl_record_st, ptr %144, i32 0, i32 2
  %146 = load i64, ptr %145, align 8, !tbaa !41
  %147 = and i64 %146, 255
  %148 = trunc i64 %147 to i8
  %149 = load ptr, ptr %13, align 8, !tbaa !10
  %150 = getelementptr inbounds i8, ptr %149, i64 1
  store i8 %148, ptr %150, align 1, !tbaa !44
  %151 = load ptr, ptr %13, align 8, !tbaa !10
  %152 = getelementptr inbounds i8, ptr %151, i64 2
  store ptr %152, ptr %13, align 8, !tbaa !10
  %153 = load ptr, ptr %22, align 8, !tbaa !54
  %154 = load ptr, ptr %12, align 8, !tbaa !54
  %155 = call i32 @EVP_MD_CTX_copy_ex(ptr noundef %153, ptr noundef %154)
  %156 = icmp sle i32 %155, 0
  br i1 %156, label %224, label %157

157:                                              ; preds = %130
  %158 = load ptr, ptr %22, align 8, !tbaa !54
  %159 = load ptr, ptr %10, align 8, !tbaa !10
  %160 = load i64, ptr %15, align 8, !tbaa !12
  %161 = call i32 @EVP_DigestUpdate(ptr noundef %158, ptr noundef %159, i64 noundef %160)
  %162 = icmp sle i32 %161, 0
  br i1 %162, label %224, label %163

163:                                              ; preds = %157
  %164 = load ptr, ptr %22, align 8, !tbaa !54
  %165 = load i64, ptr %16, align 8, !tbaa !12
  %166 = call i32 @EVP_DigestUpdate(ptr noundef %164, ptr noundef @ssl3_pad_1, i64 noundef %165)
  %167 = icmp sle i32 %166, 0
  br i1 %167, label %224, label %168

168:                                              ; preds = %163
  %169 = load ptr, ptr %22, align 8, !tbaa !54
  %170 = load ptr, ptr %11, align 8, !tbaa !10
  %171 = call i32 @EVP_DigestUpdate(ptr noundef %169, ptr noundef %170, i64 noundef 8)
  %172 = icmp sle i32 %171, 0
  br i1 %172, label %224, label %173

173:                                              ; preds = %168
  %174 = load ptr, ptr %22, align 8, !tbaa !54
  %175 = call i32 @EVP_DigestUpdate(ptr noundef %174, ptr noundef %14, i64 noundef 1)
  %176 = icmp sle i32 %175, 0
  br i1 %176, label %224, label %177

177:                                              ; preds = %173
  %178 = load ptr, ptr %22, align 8, !tbaa !54
  %179 = load ptr, ptr %8, align 8, !tbaa !10
  %180 = call i32 @EVP_DigestUpdate(ptr noundef %178, ptr noundef %179, i64 noundef 2)
  %181 = icmp sle i32 %180, 0
  br i1 %181, label %224, label %182

182:                                              ; preds = %177
  %183 = load ptr, ptr %22, align 8, !tbaa !54
  %184 = load ptr, ptr %7, align 8, !tbaa !37
  %185 = getelementptr inbounds nuw %struct.tls_rl_record_st, ptr %184, i32 0, i32 6
  %186 = load ptr, ptr %185, align 8, !tbaa !43
  %187 = load ptr, ptr %7, align 8, !tbaa !37
  %188 = getelementptr inbounds nuw %struct.tls_rl_record_st, ptr %187, i32 0, i32 2
  %189 = load i64, ptr %188, align 8, !tbaa !41
  %190 = call i32 @EVP_DigestUpdate(ptr noundef %183, ptr noundef %186, i64 noundef %189)
  %191 = icmp sle i32 %190, 0
  br i1 %191, label %224, label %192

192:                                              ; preds = %182
  %193 = load ptr, ptr %22, align 8, !tbaa !54
  %194 = load ptr, ptr %8, align 8, !tbaa !10
  %195 = call i32 @EVP_DigestFinal_ex(ptr noundef %193, ptr noundef %194, ptr noundef null)
  %196 = icmp sle i32 %195, 0
  br i1 %196, label %224, label %197

197:                                              ; preds = %192
  %198 = load ptr, ptr %22, align 8, !tbaa !54
  %199 = load ptr, ptr %12, align 8, !tbaa !54
  %200 = call i32 @EVP_MD_CTX_copy_ex(ptr noundef %198, ptr noundef %199)
  %201 = icmp sle i32 %200, 0
  br i1 %201, label %224, label %202

202:                                              ; preds = %197
  %203 = load ptr, ptr %22, align 8, !tbaa !54
  %204 = load ptr, ptr %10, align 8, !tbaa !10
  %205 = load i64, ptr %15, align 8, !tbaa !12
  %206 = call i32 @EVP_DigestUpdate(ptr noundef %203, ptr noundef %204, i64 noundef %205)
  %207 = icmp sle i32 %206, 0
  br i1 %207, label %224, label %208

208:                                              ; preds = %202
  %209 = load ptr, ptr %22, align 8, !tbaa !54
  %210 = load i64, ptr %16, align 8, !tbaa !12
  %211 = call i32 @EVP_DigestUpdate(ptr noundef %209, ptr noundef @ssl3_pad_2, i64 noundef %210)
  %212 = icmp sle i32 %211, 0
  br i1 %212, label %224, label %213

213:                                              ; preds = %208
  %214 = load ptr, ptr %22, align 8, !tbaa !54
  %215 = load ptr, ptr %8, align 8, !tbaa !10
  %216 = load i64, ptr %15, align 8, !tbaa !12
  %217 = call i32 @EVP_DigestUpdate(ptr noundef %214, ptr noundef %215, i64 noundef %216)
  %218 = icmp sle i32 %217, 0
  br i1 %218, label %224, label %219

219:                                              ; preds = %213
  %220 = load ptr, ptr %22, align 8, !tbaa !54
  %221 = load ptr, ptr %8, align 8, !tbaa !10
  %222 = call i32 @EVP_DigestFinal_ex(ptr noundef %220, ptr noundef %221, ptr noundef %21)
  %223 = icmp sle i32 %222, 0
  br i1 %223, label %224, label %226

224:                                              ; preds = %219, %213, %208, %202, %197, %192, %182, %177, %173, %168, %163, %157, %130
  %225 = load ptr, ptr %22, align 8, !tbaa !54
  call void @EVP_MD_CTX_free(ptr noundef %225)
  store i32 0, ptr %5, align 4
  store i32 1, ptr %18, align 4
  br label %228

226:                                              ; preds = %219
  %227 = load ptr, ptr %22, align 8, !tbaa !54
  call void @EVP_MD_CTX_free(ptr noundef %227)
  store i32 0, ptr %18, align 4
  br label %228

228:                                              ; preds = %226, %224, %129
  call void @llvm.lifetime.end.p0(i64 8, ptr %22) #5
  call void @llvm.lifetime.end.p0(i64 4, ptr %21) #5
  %229 = load i32, ptr %18, align 4
  switch i32 %229, label %237 [
    i32 0, label %230
  ]

230:                                              ; preds = %228
  br label %231

231:                                              ; preds = %230, %124
  %232 = load ptr, ptr %6, align 8, !tbaa !3
  %233 = call i32 @tls_increment_sequence_ctr(ptr noundef %232)
  %234 = icmp ne i32 %233, 0
  br i1 %234, label %236, label %235

235:                                              ; preds = %231
  store i32 0, ptr %5, align 4
  store i32 1, ptr %18, align 4
  br label %237

236:                                              ; preds = %231
  store i32 1, ptr %5, align 4
  store i32 1, ptr %18, align 4
  br label %237

237:                                              ; preds = %236, %235, %228, %122, %36
  call void @llvm.lifetime.end.p0(i64 4, ptr %17) #5
  call void @llvm.lifetime.end.p0(i64 8, ptr %16) #5
  call void @llvm.lifetime.end.p0(i64 8, ptr %15) #5
  call void @llvm.lifetime.end.p0(i64 1, ptr %14) #5
  call void @llvm.lifetime.end.p0(i64 8, ptr %13) #5
  call void @llvm.lifetime.end.p0(i64 8, ptr %12) #5
  call void @llvm.lifetime.end.p0(i64 8, ptr %11) #5
  call void @llvm.lifetime.end.p0(i64 8, ptr %10) #5
  %238 = load i32, ptr %5, align 4
  ret i32 %238
}