; Function Attrs: nounwind uwtable
define internal range(i32 0, 2) i32 @ssl3_mac(ptr noundef %0, ptr noundef readonly captures(none) %1, ptr noundef %2, i32 noundef %3) #0 {
  %5 = alloca i8, align 1
  %6 = alloca i64, align 8
  %7 = alloca [75 x i8], align 16
  %8 = alloca i32, align 4
  %9 = getelementptr inbounds nuw i8, ptr %0, i64 4096
  call void @llvm.lifetime.start.p0(i64 1, ptr nonnull %5) #5
  call void @llvm.lifetime.start.p0(i64 8, ptr nonnull %6) #5
  %10 = getelementptr inbounds nuw i8, ptr %0, i64 4208
  %11 = getelementptr inbounds nuw i8, ptr %0, i64 4152
  %12 = load ptr, ptr %11, align 8, !tbaa !24
  %13 = tail call i32 @EVP_MD_CTX_get_size_ex(ptr noundef %12) #5
  %14 = icmp slt i32 %13, 1
  br i1 %14, label %113, label %15

15:                                               ; preds = %4
  %16 = zext nneg i32 %13 to i64
  store i64 %16, ptr %6, align 8, !tbaa !37
  %17 = urem i32 48, %13
  %narrow = sub nuw nsw i32 48, %17
  %18 = zext nneg i32 %narrow to i64
  %.not = icmp eq i32 %3, 0
  br i1 %.not, label %19, label %54

19:                                               ; preds = %15
  %20 = getelementptr inbounds nuw i8, ptr %0, i64 4128
  %21 = load ptr, ptr %20, align 8, !tbaa !23
  %22 = tail call ptr @EVP_CIPHER_CTX_get0_cipher(ptr noundef %21) #5
  %23 = tail call i32 @EVP_CIPHER_get_mode(ptr noundef %22) #5
  %24 = icmp eq i32 %23, 2
  br i1 %24, label %25, label %54

25:                                               ; preds = %19
  %26 = tail call signext i8 @ssl3_cbc_record_digest_supported(ptr noundef %12) #5
  %.not75 = icmp eq i8 %26, 0
  br i1 %.not75, label %54, label %27

27:                                               ; preds = %25
  call void @llvm.lifetime.start.p0(i64 75, ptr nonnull %7) #5
  call void @llvm.memcpy.p0.p0.i64(ptr nonnull align 16 %7, ptr nonnull align 1 %10, i64 %16, i1 false)
  %28 = getelementptr inbounds nuw i8, ptr %7, i64 %16
  call void @llvm.memset.p0.i64(ptr nonnull align 1 %28, i8 54, i64 %18, i1 false)
  %29 = add nuw nsw i64 %16, %18
  %30 = getelementptr inbounds nuw i8, ptr %7, i64 %29
  %31 = load i64, ptr %9, align 1
  store i64 %31, ptr %30, align 1
  %32 = add nuw nsw i64 %29, 8
  %33 = getelementptr inbounds nuw i8, ptr %1, i64 4
  %34 = load i32, ptr %33, align 4, !tbaa !40
  %35 = trunc i32 %34 to i8
  %36 = add nuw nsw i64 %29, 9
  %37 = getelementptr inbounds nuw [75 x i8], ptr %7, i64 0, i64 %32
  store i8 %35, ptr %37, align 1, !tbaa !29
  %38 = getelementptr inbounds nuw i8, ptr %1, i64 8
  %39 = load i64, ptr %38, align 8, !tbaa !26
  %40 = lshr i64 %39, 8
  %41 = trunc i64 %40 to i8
  %42 = add nuw nsw i64 %29, 10
  %43 = getelementptr inbounds nuw [75 x i8], ptr %7, i64 0, i64 %36
  store i8 %41, ptr %43, align 1, !tbaa !29
  %44 = trunc i64 %39 to i8
  %45 = getelementptr inbounds nuw [75 x i8], ptr %7, i64 0, i64 %42
  store i8 %44, ptr %45, align 1, !tbaa !29
  %46 = tail call ptr @EVP_MD_CTX_get0_md(ptr noundef %12) #5
  %47 = getelementptr inbounds nuw i8, ptr %1, i64 40
  %48 = load ptr, ptr %47, align 8, !tbaa !28
  %49 = load i64, ptr %38, align 8, !tbaa !26
  %50 = getelementptr inbounds nuw i8, ptr %1, i64 16
  %51 = load i64, ptr %50, align 8, !tbaa !38
  %52 = call i32 @ssl3_cbc_digest_record(ptr noundef %46, ptr noundef %2, ptr noundef nonnull %6, ptr noundef nonnull %7, ptr noundef %48, i64 noundef %49, i64 noundef %51, ptr noundef nonnull %10, i64 noundef %16, i8 noundef signext 1) #5
  %53 = icmp sgt i32 %52, 0
  call void @llvm.lifetime.end.p0(i64 75, ptr nonnull %7) #5
  br i1 %53, label %111, label %113

54:                                               ; preds = %25, %19, %15
  call void @llvm.lifetime.start.p0(i64 4, ptr nonnull %8) #5
  %55 = tail call ptr @EVP_MD_CTX_new() #5
  %56 = icmp eq ptr %55, null
  br i1 %56, label %.critedge, label %57

57:                                               ; preds = %54
  %58 = getelementptr inbounds nuw i8, ptr %1, i64 4
  %59 = load i32, ptr %58, align 4, !tbaa !40
  %60 = trunc i32 %59 to i8
  store i8 %60, ptr %5, align 1, !tbaa !29
  %61 = getelementptr inbounds nuw i8, ptr %1, i64 8
  %62 = load i64, ptr %61, align 8, !tbaa !26
  %63 = lshr i64 %62, 8
  %64 = trunc i64 %63 to i8
  store i8 %64, ptr %2, align 1, !tbaa !29
  %65 = load i64, ptr %61, align 8, !tbaa !26
  %66 = trunc i64 %65 to i8
  %67 = getelementptr inbounds nuw i8, ptr %2, i64 1
  store i8 %66, ptr %67, align 1, !tbaa !29
  %68 = tail call i32 @EVP_MD_CTX_copy_ex(ptr noundef nonnull %55, ptr noundef %12) #5
  %69 = icmp slt i32 %68, 1
  br i1 %69, label %109, label %70

70:                                               ; preds = %57
  %71 = tail call i32 @EVP_DigestUpdate(ptr noundef nonnull %55, ptr noundef nonnull %10, i64 noundef %16) #5
  %72 = icmp slt i32 %71, 1
  br i1 %72, label %109, label %73

73:                                               ; preds = %70
  %74 = tail call i32 @EVP_DigestUpdate(ptr noundef nonnull %55, ptr noundef nonnull @ssl3_pad_1, i64 noundef %18) #5
  %75 = icmp slt i32 %74, 1
  br i1 %75, label %109, label %76

76:                                               ; preds = %73
  %77 = tail call i32 @EVP_DigestUpdate(ptr noundef nonnull %55, ptr noundef nonnull %9, i64 noundef 8) #5
  %78 = icmp slt i32 %77, 1
  br i1 %78, label %109, label %79

79:                                               ; preds = %76
  %80 = call i32 @EVP_DigestUpdate(ptr noundef nonnull %55, ptr noundef nonnull %5, i64 noundef 1) #5
  %81 = icmp slt i32 %80, 1
  br i1 %81, label %109, label %82

82:                                               ; preds = %79
  %83 = call i32 @EVP_DigestUpdate(ptr noundef nonnull %55, ptr noundef nonnull %2, i64 noundef 2) #5
  %84 = icmp slt i32 %83, 1
  br i1 %84, label %109, label %85

85:                                               ; preds = %82
  %86 = getelementptr inbounds nuw i8, ptr %1, i64 40
  %87 = load ptr, ptr %86, align 8, !tbaa !28
  %88 = load i64, ptr %61, align 8, !tbaa !26
  %89 = call i32 @EVP_DigestUpdate(ptr noundef nonnull %55, ptr noundef %87, i64 noundef %88) #5
  %90 = icmp slt i32 %89, 1
  br i1 %90, label %109, label %91

91:                                               ; preds = %85
  %92 = call i32 @EVP_DigestFinal_ex(ptr noundef nonnull %55, ptr noundef nonnull %2, ptr noundef null) #5
  %93 = icmp slt i32 %92, 1
  br i1 %93, label %109, label %94

94:                                               ; preds = %91
  %95 = call i32 @EVP_MD_CTX_copy_ex(ptr noundef nonnull %55, ptr noundef %12) #5
  %96 = icmp slt i32 %95, 1
  br i1 %96, label %109, label %97

97:                                               ; preds = %94
  %98 = call i32 @EVP_DigestUpdate(ptr noundef nonnull %55, ptr noundef nonnull %10, i64 noundef %16) #5
  %99 = icmp slt i32 %98, 1
  br i1 %99, label %109, label %100

100:                                              ; preds = %97
  %101 = call i32 @EVP_DigestUpdate(ptr noundef nonnull %55, ptr noundef nonnull @ssl3_pad_2, i64 noundef %18) #5
  %102 = icmp slt i32 %101, 1
  br i1 %102, label %109, label %103

103:                                              ; preds = %100
  %104 = call i32 @EVP_DigestUpdate(ptr noundef nonnull %55, ptr noundef nonnull %2, i64 noundef %16) #5
  %105 = icmp slt i32 %104, 1
  br i1 %105, label %109, label %106

106:                                              ; preds = %103
  %107 = call i32 @EVP_DigestFinal_ex(ptr noundef nonnull %55, ptr noundef nonnull %2, ptr noundef nonnull %8) #5
  %108 = icmp slt i32 %107, 1
  br i1 %108, label %109, label %110

109:                                              ; preds = %106, %103, %100, %97, %94, %91, %85, %82, %79, %76, %73, %70, %57
  call void @EVP_MD_CTX_free(ptr noundef nonnull %55) #5
  br label %.critedge

110:                                              ; preds = %106
  call void @EVP_MD_CTX_free(ptr noundef nonnull %55) #5
  call void @llvm.lifetime.end.p0(i64 4, ptr nonnull %8) #5
  br label %111

111:                                              ; preds = %110, %27
  %112 = call i32 @tls_increment_sequence_ctr(ptr noundef nonnull %0) #5
  %.not76 = icmp ne i32 %112, 0
  %. = zext i1 %.not76 to i32
  br label %113

.critedge:                                        ; preds = %54, %109
  call void @llvm.lifetime.end.p0(i64 4, ptr nonnull %8) #5
  br label %113

113:                                              ; preds = %111, %.critedge, %4, %27
  %.0 = phi i32 [ 0, %27 ], [ 0, %4 ], [ 0, %.critedge ], [ %., %111 ]
  call void @llvm.lifetime.end.p0(i64 8, ptr nonnull %6) #5
  call void @llvm.lifetime.end.p0(i64 1, ptr nonnull %5) #5
  ret i32 %.0
}